target datalayout = "e-m:e-p270:32:32-p271:32:32-p272:64:64-i64:64-i128:128-f80:128-n8:16:32:64-S128"
target triple = "x86_64-pc-linux-gnu"

%struct.lv_point_t = type { i32, i32 }
%struct.lv_color_t = type { i8, i8, i8 }

@opa_saved = internal global i8 0, align 1

; Function Attrs: nounwind uwtable
define internal void @add_to_cell(ptr noundef %0, i32 noundef %1, i32 noundef %2) #0 {
  %4 = alloca ptr, align 8
  %5 = alloca i32, align 4
  %6 = alloca i32, align 4
  store ptr %0, ptr %4, align 8, !tbaa !8
  store i32 %1, ptr %5, align 4, !tbaa !3
  store i32 %2, ptr %6, align 4, !tbaa !3
  %7 = load ptr, ptr %4, align 8, !tbaa !8
  %8 = load i32, ptr %5, align 4, !tbaa !3
  %9 = load i32, ptr %6, align 4, !tbaa !3
  call void @lv_obj_set_grid_cell(ptr noundef %7, i32 noundef 1, i32 noundef %8, i32 noundef 1, i32 noundef 1, i32 noundef %9, i32 noundef 1)
  ret void
}

; Function Attrs: nounwind uwtable
define internal ptr @triangle_obj_create(ptr noundef %0, i32 noundef %1, i32 noundef %2, ptr noundef %3) #0 {
  %5 = alloca ptr, align 8
  %6 = alloca i32, align 4
  %7 = alloca i32, align 4
  %8 = alloca ptr, align 8
  %9 = alloca ptr, align 8
  %10 = alloca %struct.lv_color_t, align 1
  %11 = alloca i24, align 4
  store ptr %0, ptr %5, align 8, !tbaa !8
  store i32 %1, ptr %6, align 4, !tbaa !3
  store i32 %2, ptr %7, align 4, !tbaa !3
  store ptr %3, ptr %8, align 8, !tbaa !51
  call void @llvm.lifetime.start.p0(i64 8, ptr %9) #5
  %12 = load ptr, ptr %5, align 8, !tbaa !8
  %13 = call ptr @lv_arc_create(ptr noundef %12)
  store ptr %13, ptr %9, align 8, !tbaa !8
  %14 = load ptr, ptr %9, align 8, !tbaa !8
  call void @lv_obj_remove_style_all(ptr noundef %14)
  %15 = load ptr, ptr %9, align 8, !tbaa !8
  call void @lv_obj_set_size(ptr noundef %15, i32 noundef 55, i32 noundef 30)
  %16 = load ptr, ptr %9, align 8, !tbaa !8
  %17 = call i24 @lv_color_hex3(i32 noundef 4080)
  store i24 %17, ptr %10, align 1
  call void @llvm.memcpy.p0.p0.i64(ptr align 4 %11, ptr align 1 %10, i64 3, i1 false)
  %18 = load i24, ptr %11, align 4
  call void @lv_obj_set_style_bg_color(ptr noundef %16, i24 %18, i32 noundef 0)
  %19 = load ptr, ptr %9, align 8, !tbaa !8
  %20 = load i8, ptr @opa_saved, align 1, !tbaa !7
  call void @lv_obj_set_style_opa(ptr noundef %19, i8 noundef zeroext %20, i32 noundef 0)
  %21 = load ptr, ptr %9, align 8, !tbaa !8
  %22 = load ptr, ptr %8, align 8, !tbaa !51
  %23 = call ptr @lv_obj_add_event_cb(ptr noundef %21, ptr noundef @triangle_draw_event_cb, i32 noundef 29, ptr noundef %22)
  %24 = load ptr, ptr %9, align 8, !tbaa !8
  %25 = load i32, ptr %6, align 4, !tbaa !3
  %26 = load i32, ptr %7, align 4, !tbaa !3
  call void @add_to_cell(ptr noundef %24, i32 noundef %25, i32 noundef %26)
  %27 = load ptr, ptr %9, align 8, !tbaa !8
  call void @llvm.lifetime.end.p0(i64 8, ptr %9) #5
  ret ptr %27
}

; Function Attrs: nounwind uwtable
define internal void @triangle_cb(ptr noundef %0) #0 {
  %2 = alloca ptr, align 8
  %3 = alloca i32, align 4
  %4 = alloca ptr, align 8
  %5 = alloca %struct.lv_color_t, align 1
  %6 = alloca i24, align 4
  %7 = alloca ptr, align 8
  %8 = alloca %struct.lv_color_t, align 1
  %9 = alloca i24, align 4
  %10 = alloca ptr, align 8
  %11 = alloca %struct.lv_color_t, align 1
  %12 = alloca i24, align 4
  %13 = alloca ptr, align 8
  %14 = alloca %struct.lv_color_t, align 1
  %15 = alloca i24, align 4
  store ptr %0, ptr %2, align 8, !tbaa !8
  call void @llvm.lifetime.start.p0(i64 4, ptr %3) #5
  store i32 0, ptr %3, align 4, !tbaa !3
  br label %16

16:                                               ; preds = %30, %1
  %17 = load i32, ptr %3, align 4, !tbaa !3
  %18 = icmp ult i32 %17, 16
  br i1 %18, label %19, label %33

19:                                               ; preds = %16
  %20 = load ptr, ptr %2, align 8, !tbaa !8
  %21 = load i32, ptr %3, align 4, !tbaa !3
  %22 = urem i32 %21, 8
  %23 = load i32, ptr %3, align 4, !tbaa !3
  %24 = udiv i32 %23, 8
  %25 = load i32, ptr %3, align 4, !tbaa !3
  %26 = zext i32 %25 to i64
  %27 = getelementptr inbounds nuw [16 x [3 x %struct.lv_point_t]], ptr @triangle_cb.points, i64 0, i64 %26
  %28 = getelementptr inbounds [3 x %struct.lv_point_t], ptr %27, i64 0, i64 0
  %29 = call ptr @triangle_obj_create(ptr noundef %20, i32 noundef %22, i32 noundef %24, ptr noundef %28)
  br label %30

30:                                               ; preds = %19
  %31 = load i32, ptr %3, align 4, !tbaa !3
  %32 = add i32 %31, 1
  store i32 %32, ptr %3, align 4, !tbaa !3
  br label %16, !llvm.loop !41

33:                                               ; preds = %16
  store i32 0, ptr %3, align 4, !tbaa !3
  br label %34

34:                                               ; preds = %53, %33
  %35 = load i32, ptr %3, align 4, !tbaa !3
  %36 = icmp ult i32 %35, 16
  br i1 %36, label %37, label %56

37:                                               ; preds = %34
  call void @llvm.lifetime.start.p0(i64 8, ptr %4) #5
  %38 = load ptr, ptr %2, align 8, !tbaa !8
  %39 = load i32, ptr %3, align 4, !tbaa !3
  %40 = urem i32 %39, 8
  %41 = load i32, ptr %3, align 4, !tbaa !3
  %42 = udiv i32 %41, 8
  %43 = add i32 2, %42
  %44 = load i32, ptr %3, align 4, !tbaa !3
  %45 = zext i32 %44 to i64
  %46 = getelementptr inbounds nuw [16 x [3 x %struct.lv_point_t]], ptr @triangle_cb.points, i64 0, i64 %45
  %47 = getelementptr inbounds [3 x %struct.lv_point_t], ptr %46, i64 0, i64 0
  %48 = call ptr @triangle_obj_create(ptr noundef %38, i32 noundef %40, i32 noundef %43, ptr noundef %47)
  store ptr %48, ptr %4, align 8, !tbaa !8
  %49 = load ptr, ptr %4, align 8, !tbaa !8
  %50 = call i24 @lv_color_hex3(i32 noundef 3840)
  store i24 %50, ptr %5, align 1
  call void @llvm.memcpy.p0.p0.i64(ptr align 4 %6, ptr align 1 %5, i64 3, i1 false)
  %51 = load i24, ptr %6, align 4
  call void @lv_obj_set_style_bg_grad_color(ptr noundef %49, i24 %51, i32 noundef 0)
  %52 = load ptr, ptr %4, align 8, !tbaa !8
  call void @lv_obj_set_style_bg_grad_dir(ptr noundef %52, i32 noundef 1, i32 noundef 0)
  call void @llvm.lifetime.end.p0(i64 8, ptr %4) #5
  br label %53

53:                                               ; preds = %37
  %54 = load i32, ptr %3, align 4, !tbaa !3
  %55 = add i32 %54, 1
  store i32 %55, ptr %3, align 4, !tbaa !3
  br label %34, !llvm.loop !42

56:                                               ; preds = %34
  store i32 0, ptr %3, align 4, !tbaa !3
  br label %57

57:                                               ; preds = %76, %56
  %58 = load i32, ptr %3, align 4, !tbaa !3
  %59 = icmp ult i32 %58, 16
  br i1 %59, label %60, label %79

60:                                               ; preds = %57
  call void @llvm.lifetime.start.p0(i64 8, ptr %7) #5
  %61 = load ptr, ptr %2, align 8, !tbaa !8
  %62 = load i32, ptr %3, align 4, !tbaa !3
  %63 = urem i32 %62, 8
  %64 = load i32, ptr %3, align 4, !tbaa !3
  %65 = udiv i32 %64, 8
  %66 = add i32 4, %65
  %67 = load i32, ptr %3, align 4, !tbaa !3
  %68 = zext i32 %67 to i64
  %69 = getelementptr inbounds nuw [16 x [3 x %struct.lv_point_t]], ptr @triangle_cb.points, i64 0, i64 %68
  %70 = getelementptr inbounds [3 x %struct.lv_point_t], ptr %69, i64 0, i64 0
  %71 = call ptr @triangle_obj_create(ptr noundef %61, i32 noundef %63, i32 noundef %66, ptr noundef %70)
  store ptr %71, ptr %7, align 8, !tbaa !8
  %72 = load ptr, ptr %7, align 8, !tbaa !8
  %73 = call i24 @lv_color_hex3(i32 noundef 3840)
  store i24 %73, ptr %8, align 1
  call void @llvm.memcpy.p0.p0.i64(ptr align 4 %9, ptr align 1 %8, i64 3, i1 false)
  %74 = load i24, ptr %9, align 4
  call void @lv_obj_set_style_bg_grad_color(ptr noundef %72, i24 %74, i32 noundef 0)
  %75 = load ptr, ptr %7, align 8, !tbaa !8
  call void @lv_obj_set_style_bg_grad_dir(ptr noundef %75, i32 noundef 2, i32 noundef 0)
  call void @llvm.lifetime.end.p0(i64 8, ptr %7) #5
  br label %76

76:                                               ; preds = %60
  %77 = load i32, ptr %3, align 4, !tbaa !3
  %78 = add i32 %77, 1
  store i32 %78, ptr %3, align 4, !tbaa !3
  br label %57, !llvm.loop !43

79:                                               ; preds = %57
  store i32 0, ptr %3, align 4, !tbaa !3
  br label %80

80:                                               ; preds = %100, %79
  %81 = load i32, ptr %3, align 4, !tbaa !3
  %82 = icmp ult i32 %81, 8
  br i1 %82, label %83, label %103

83:                                               ; preds = %80
  call void @llvm.lifetime.start.p0(i64 8, ptr %10) #5
  %84 = load ptr, ptr %2, align 8, !tbaa !8
  %85 = load i32, ptr %3, align 4, !tbaa !3
  %86 = urem i32 %85, 8
  %87 = load i32, ptr %3, align 4, !tbaa !3
  %88 = udiv i32 %87, 8
  %89 = add i32 6, %88
  %90 = load i32, ptr %3, align 4, !tbaa !3
  %91 = zext i32 %90 to i64
  %92 = getelementptr inbounds nuw [16 x [3 x %struct.lv_point_t]], ptr @triangle_cb.points, i64 0, i64 %91
  %93 = getelementptr inbounds [3 x %struct.lv_point_t], ptr %92, i64 0, i64 0
  %94 = call ptr @triangle_obj_create(ptr noundef %84, i32 noundef %86, i32 noundef %89, ptr noundef %93)
  store ptr %94, ptr %10, align 8, !tbaa !8
  %95 = load ptr, ptr %10, align 8, !tbaa !8
  %96 = call i24 @lv_color_hex3(i32 noundef 3840)
  store i24 %96, ptr %11, align 1
  call void @llvm.memcpy.p0.p0.i64(ptr align 4 %12, ptr align 1 %11, i64 3, i1 false)
  %97 = load i24, ptr %12, align 4
  call void @lv_obj_set_style_bg_grad_color(ptr noundef %95, i24 %97, i32 noundef 0)
  %98 = load ptr, ptr %10, align 8, !tbaa !8
  call void @lv_obj_set_style_bg_grad_dir(ptr noundef %98, i32 noundef 1, i32 noundef 0)
  %99 = load ptr, ptr %10, align 8, !tbaa !8
  call void @lv_obj_set_style_bg_grad_opa(ptr noundef %99, i8 noundef zeroext 0, i32 noundef 0)
  call void @llvm.lifetime.end.p0(i64 8, ptr %10) #5
  br label %100

100:                                              ; preds = %83
  %101 = load i32, ptr %3, align 4, !tbaa !3
  %102 = add i32 %101, 1
  store i32 %102, ptr %3, align 4, !tbaa !3
  br label %80, !llvm.loop !44

103:                                              ; preds = %80
  store i32 0, ptr %3, align 4, !tbaa !3
  br label %104

104:                                              ; preds = %124, %103
  %105 = load i32, ptr %3, align 4, !tbaa !3
  %106 = icmp ult i32 %105, 8
  br i1 %106, label %107, label %127

107:                                              ; preds = %104
  call void @llvm.lifetime.start.p0(i64 8, ptr %13) #5
  %108 = load ptr, ptr %2, align 8, !tbaa !8
  %109 = load i32, ptr %3, align 4, !tbaa !3
  %110 = urem i32 %109, 8
  %111 = load i32, ptr %3, align 4, !tbaa !3
  %112 = udiv i32 %111, 8
  %113 = add i32 7, %112
  %114 = load i32, ptr %3, align 4, !tbaa !3
  %115 = zext i32 %114 to i64
  %116 = getelementptr inbounds nuw [16 x [3 x %struct.lv_point_t]], ptr @triangle_cb.points, i64 0, i64 %115
  %117 = getelementptr inbounds [3 x %struct.lv_point_t], ptr %116, i64 0, i64 0
  %118 = call ptr @triangle_obj_create(ptr noundef %108, i32 noundef %110, i32 noundef %113, ptr noundef %117)
  store ptr %118, ptr %13, align 8, !tbaa !8
  %119 = load ptr, ptr %13, align 8, !tbaa !8
  %120 = call i24 @lv_color_hex3(i32 noundef 3840)
  store i24 %120, ptr %14, align 1
  call void @llvm.memcpy.p0.p0.i64(ptr align 4 %15, ptr align 1 %14, i64 3, i1 false)
  %121 = load i24, ptr %15, align 4
  call void @lv_obj_set_style_bg_grad_color(ptr noundef %119, i24 %121, i32 noundef 0)
  %122 = load ptr, ptr %13, align 8, !tbaa !8
  call void @lv_obj_set_style_bg_grad_dir(ptr noundef %122, i32 noundef 2, i32 noundef 0)
  %123 = load ptr, ptr %13, align 8, !tbaa !8
  call void @lv_obj_set_style_bg_grad_opa(ptr noundef %123, i8 noundef zeroext 0, i32 noundef 0)
  call void @llvm.lifetime.end.p0(i64 8, ptr %13) #5
  br label %124

124:                                              ; preds = %107
  %125 = load i32, ptr %3, align 4, !tbaa !3
  %126 = add i32 %125, 1
  store i32 %126, ptr %3, align 4, !tbaa !3
  br label %104, !llvm.loop !45

127:                                              ; preds = %104
  call void @llvm.lifetime.end.p0(i64 4, ptr %3) #5
  ret void
}