; Function Attrs: nounwind uwtable
define internal void @triangle_cb(ptr noundef %0) #0 {
  br label %2

2:                                                ; preds = %1, %2
  %indvars.iv = phi i64 [ 0, %1 ], [ %indvars.iv.next, %2 ]
  %3 = trunc nuw nsw i64 %indvars.iv to i32
  %4 = and i32 %3, 7
  %5 = lshr i32 %3, 3
  %6 = getelementptr inbounds nuw [16 x [3 x %struct.lv_point_t]], ptr @triangle_cb.points, i64 0, i64 %indvars.iv
  %7 = tail call ptr @lv_arc_create(ptr noundef %0) #6
  tail call void @lv_obj_remove_style_all(ptr noundef %7) #6
  tail call void @lv_obj_set_size(ptr noundef %7, i32 noundef 55, i32 noundef 30) #6
  %8 = tail call i24 @lv_color_hex3(i32 noundef 4080) #6
  tail call void @lv_obj_set_style_bg_color(ptr noundef %7, i24 %8, i32 noundef 0) #6
  %9 = load i8, ptr @opa_saved, align 1, !tbaa !3
  tail call void @lv_obj_set_style_opa(ptr noundef %7, i8 noundef zeroext %9, i32 noundef 0) #6
  %10 = tail call ptr @lv_obj_add_event_cb(ptr noundef %7, ptr noundef nonnull @triangle_draw_event_cb, i32 noundef 29, ptr noundef nonnull %6) #6
  tail call void @lv_obj_set_grid_cell(ptr noundef %7, i32 noundef 1, i32 noundef range(i32 0, 8) %4, i32 noundef 1, i32 noundef 1, i32 noundef range(i32 0, 8) %5, i32 noundef 1) #6
  %indvars.iv.next = add nuw nsw i64 %indvars.iv, 1
  %exitcond.not = icmp eq i64 %indvars.iv.next, 16
  br i1 %exitcond.not, label %.preheader48, label %2, !llvm.loop !39

.preheader48:                                     ; preds = %2, %.preheader48
  %indvars.iv55 = phi i64 [ %indvars.iv.next56, %.preheader48 ], [ 0, %2 ]
  %11 = trunc nuw nsw i64 %indvars.iv55 to i32
  %12 = and i32 %11, 7
  %13 = lshr i32 %11, 3
  %14 = or disjoint i32 %13, 2
  %15 = getelementptr inbounds nuw [16 x [3 x %struct.lv_point_t]], ptr @triangle_cb.points, i64 0, i64 %indvars.iv55
  %16 = tail call ptr @lv_arc_create(ptr noundef %0) #6
  tail call void @lv_obj_remove_style_all(ptr noundef %16) #6
  tail call void @lv_obj_set_size(ptr noundef %16, i32 noundef 55, i32 noundef 30) #6
  %17 = tail call i24 @lv_color_hex3(i32 noundef 4080) #6
  tail call void @lv_obj_set_style_bg_color(ptr noundef %16, i24 %17, i32 noundef 0) #6
  %18 = load i8, ptr @opa_saved, align 1, !tbaa !3
  tail call void @lv_obj_set_style_opa(ptr noundef %16, i8 noundef zeroext %18, i32 noundef 0) #6
  %19 = tail call ptr @lv_obj_add_event_cb(ptr noundef %16, ptr noundef nonnull @triangle_draw_event_cb, i32 noundef 29, ptr noundef nonnull %15) #6
  tail call void @lv_obj_set_grid_cell(ptr noundef %16, i32 noundef 1, i32 noundef range(i32 0, 8) %12, i32 noundef 1, i32 noundef 1, i32 noundef range(i32 0, 8) %14, i32 noundef 1) #6
  %20 = tail call i24 @lv_color_hex3(i32 noundef 3840) #6
  tail call void @lv_obj_set_style_bg_grad_color(ptr noundef %16, i24 %20, i32 noundef 0) #6
  tail call void @lv_obj_set_style_bg_grad_dir(ptr noundef %16, i32 noundef 1, i32 noundef 0) #6
  %indvars.iv.next56 = add nuw nsw i64 %indvars.iv55, 1
  %exitcond58.not = icmp eq i64 %indvars.iv.next56, 16
  br i1 %exitcond58.not, label %.preheader47, label %.preheader48, !llvm.loop !40

.preheader47:                                     ; preds = %.preheader48, %.preheader47
  %indvars.iv59 = phi i64 [ %indvars.iv.next60, %.preheader47 ], [ 0, %.preheader48 ]
  %21 = trunc nuw nsw i64 %indvars.iv59 to i32
  %22 = and i32 %21, 7
  %23 = lshr i32 %21, 3
  %24 = or disjoint i32 %23, 4
  %25 = getelementptr inbounds nuw [16 x [3 x %struct.lv_point_t]], ptr @triangle_cb.points, i64 0, i64 %indvars.iv59
  %26 = tail call ptr @lv_arc_create(ptr noundef %0) #6
  tail call void @lv_obj_remove_style_all(ptr noundef %26) #6
  tail call void @lv_obj_set_size(ptr noundef %26, i32 noundef 55, i32 noundef 30) #6
  %27 = tail call i24 @lv_color_hex3(i32 noundef 4080) #6
  tail call void @lv_obj_set_style_bg_color(ptr noundef %26, i24 %27, i32 noundef 0) #6
  %28 = load i8, ptr @opa_saved, align 1, !tbaa !3
  tail call void @lv_obj_set_style_opa(ptr noundef %26, i8 noundef zeroext %28, i32 noundef 0) #6
  %29 = tail call ptr @lv_obj_add_event_cb(ptr noundef %26, ptr noundef nonnull @triangle_draw_event_cb, i32 noundef 29, ptr noundef nonnull %25) #6
  tail call void @lv_obj_set_grid_cell(ptr noundef %26, i32 noundef 1, i32 noundef range(i32 0, 8) %22, i32 noundef 1, i32 noundef 1, i32 noundef range(i32 0, 8) %24, i32 noundef 1) #6
  %30 = tail call i24 @lv_color_hex3(i32 noundef 3840) #6
  tail call void @lv_obj_set_style_bg_grad_color(ptr noundef %26, i24 %30, i32 noundef 0) #6
  tail call void @lv_obj_set_style_bg_grad_dir(ptr noundef %26, i32 noundef 2, i32 noundef 0) #6
  %indvars.iv.next60 = add nuw nsw i64 %indvars.iv59, 1
  %exitcond62.not = icmp eq i64 %indvars.iv.next60, 16
  br i1 %exitcond62.not, label %.preheader46, label %.preheader47, !llvm.loop !41

.preheader46:                                     ; preds = %.preheader47, %.preheader46
  %indvars.iv63 = phi i64 [ %indvars.iv.next64, %.preheader46 ], [ 0, %.preheader47 ]
  %31 = getelementptr inbounds nuw [16 x [3 x %struct.lv_point_t]], ptr @triangle_cb.points, i64 0, i64 %indvars.iv63
  %32 = tail call ptr @lv_arc_create(ptr noundef %0) #6
  tail call void @lv_obj_remove_style_all(ptr noundef %32) #6
  tail call void @lv_obj_set_size(ptr noundef %32, i32 noundef 55, i32 noundef 30) #6
  %33 = tail call i24 @lv_color_hex3(i32 noundef 4080) #6
  tail call void @lv_obj_set_style_bg_color(ptr noundef %32, i24 %33, i32 noundef 0) #6
  %34 = load i8, ptr @opa_saved, align 1, !tbaa !3
  tail call void @lv_obj_set_style_opa(ptr noundef %32, i8 noundef zeroext %34, i32 noundef 0) #6
  %35 = tail call ptr @lv_obj_add_event_cb(ptr noundef %32, ptr noundef nonnull @triangle_draw_event_cb, i32 noundef 29, ptr noundef nonnull %31) #6
  %36 = trunc nuw nsw i64 %indvars.iv63 to i32
  tail call void @lv_obj_set_grid_cell(ptr noundef %32, i32 noundef 1, i32 noundef range(i32 0, 8) %36, i32 noundef 1, i32 noundef 1, i32 noundef range(i32 -8, 21) 6, i32 noundef 1) #6
  %37 = tail call i24 @lv_color_hex3(i32 noundef 3840) #6
  tail call void @lv_obj_set_style_bg_grad_color(ptr noundef %32, i24 %37, i32 noundef 0) #6
  tail call void @lv_obj_set_style_bg_grad_dir(ptr noundef %32, i32 noundef 1, i32 noundef 0) #6
  tail call void @lv_obj_set_style_bg_grad_opa(ptr noundef %32, i8 noundef zeroext 0, i32 noundef 0) #6
  %indvars.iv.next64 = add nuw nsw i64 %indvars.iv63, 1
  %exitcond66.not = icmp eq i64 %indvars.iv.next64, 8
  br i1 %exitcond66.not, label %.preheader, label %.preheader46, !llvm.loop !42

.preheader:                                       ; preds = %.preheader46, %.preheader
  %indvars.iv67 = phi i64 [ %indvars.iv.next68, %.preheader ], [ 0, %.preheader46 ]
  %38 = getelementptr inbounds nuw [16 x [3 x %struct.lv_point_t]], ptr @triangle_cb.points, i64 0, i64 %indvars.iv67
  %39 = tail call ptr @lv_arc_create(ptr noundef %0) #6
  tail call void @lv_obj_remove_style_all(ptr noundef %39) #6
  tail call void @lv_obj_set_size(ptr noundef %39, i32 noundef 55, i32 noundef 30) #6
  %40 = tail call i24 @lv_color_hex3(i32 noundef 4080) #6
  tail call void @lv_obj_set_style_bg_color(ptr noundef %39, i24 %40, i32 noundef 0) #6
  %41 = load i8, ptr @opa_saved, align 1, !tbaa !3
  tail call void @lv_obj_set_style_opa(ptr noundef %39, i8 noundef zeroext %41, i32 noundef 0) #6
  %42 = tail call ptr @lv_obj_add_event_cb(ptr noundef %39, ptr noundef nonnull @triangle_draw_event_cb, i32 noundef 29, ptr noundef nonnull %38) #6
  %43 = trunc nuw nsw i64 %indvars.iv67 to i32
  tail call void @lv_obj_set_grid_cell(ptr noundef %39, i32 noundef 1, i32 noundef range(i32 0, 8) %43, i32 noundef 1, i32 noundef 1, i32 noundef range(i32 -8, 21) 7, i32 noundef 1) #6
  %44 = tail call i24 @lv_color_hex3(i32 noundef 3840) #6
  tail call void @lv_obj_set_style_bg_grad_color(ptr noundef %39, i24 %44, i32 noundef 0) #6
  tail call void @lv_obj_set_style_bg_grad_dir(ptr noundef %39, i32 noundef 2, i32 noundef 0) #6
  tail call void @lv_obj_set_style_bg_grad_opa(ptr noundef %39, i8 noundef zeroext 0, i32 noundef 0) #6
  %indvars.iv.next68 = add nuw nsw i64 %indvars.iv67, 1
  %exitcond70.not = icmp eq i64 %indvars.iv.next68, 8
  br i1 %exitcond70.not, label %45, label %.preheader, !llvm.loop !43

45:                                               ; preds = %.preheader
  ret void
}